target datalayout = "e-m:e-p270:32:32-p271:32:32-p272:64:64-i64:64-i128:128-f80:128-n8:16:32:64-S128"
target triple = "x86_64-pc-linux-gnu"

%struct.Qureg = type { i32, i32, i32, i64, i64, i32, i32, %struct.ComplexArray, %struct.ComplexArray, %struct.ComplexArray, ptr, ptr, ptr, ptr, ptr, ptr }
%struct.ComplexArray = type { ptr, ptr }

@__func__.multiControlledPhaseFlip = private unnamed_addr constant [25 x i8] c"multiControlledPhaseFlip\00", align 1

; Function Attrs: nounwind uwtable
define void @multiControlledPhaseFlip(ptr noundef byval(%struct.Qureg) align 8 %0, ptr noundef %1, i32 noundef %2) #0 {
  %4 = alloca ptr, align 8
  %5 = alloca i32, align 4
  %6 = alloca i32, align 4
  store ptr %1, ptr %4, align 8, !tbaa !27
  store i32 %2, ptr %5, align 4, !tbaa !4
  %7 = load ptr, ptr %4, align 8, !tbaa !27
  %8 = load i32, ptr %5, align 4, !tbaa !4
  call void @validateMultiQubits(ptr noundef byval(%struct.Qureg) align 8 %0, ptr noundef %7, i32 noundef %8, ptr noundef @__func__.multiControlledPhaseFlip)
  %9 = load ptr, ptr %4, align 8, !tbaa !27
  %10 = load i32, ptr %5, align 4, !tbaa !4
  call void @statevec_multiControlledPhaseFlip(ptr noundef byval(%struct.Qureg) align 8 %0, ptr noundef %9, i32 noundef %10)
  %11 = getelementptr inbounds nuw %struct.Qureg, ptr %0, i32 0, i32 0
  %12 = load i32, ptr %11, align 8, !tbaa !13
  %13 = icmp ne i32 %12, 0
  br i1 %13, label %14, label %26

14:                                               ; preds = %3
  call void @llvm.lifetime.start.p0(i64 4, ptr %6) #7
  %15 = getelementptr inbounds nuw %struct.Qureg, ptr %0, i32 0, i32 1
  %16 = load i32, ptr %15, align 4, !tbaa !18
  store i32 %16, ptr %6, align 4, !tbaa !4
  %17 = load ptr, ptr %4, align 8, !tbaa !27
  %18 = load i32, ptr %5, align 4, !tbaa !4
  %19 = load i32, ptr %6, align 4, !tbaa !4
  call void @shiftIndices(ptr noundef %17, i32 noundef %18, i32 noundef %19)
  %20 = load ptr, ptr %4, align 8, !tbaa !27
  %21 = load i32, ptr %5, align 4, !tbaa !4
  call void @statevec_multiControlledPhaseFlip(ptr noundef byval(%struct.Qureg) align 8 %0, ptr noundef %20, i32 noundef %21)
  %22 = load ptr, ptr %4, align 8, !tbaa !27
  %23 = load i32, ptr %5, align 4, !tbaa !4
  %24 = load i32, ptr %6, align 4, !tbaa !4
  %25 = sub nsw i32 0, %24
  call void @shiftIndices(ptr noundef %22, i32 noundef %23, i32 noundef %25)
  call void @llvm.lifetime.end.p0(i64 4, ptr %6) #7
  br label %26

26:                                               ; preds = %14, %3
  %27 = load ptr, ptr %4, align 8, !tbaa !27
  %28 = load i32, ptr %5, align 4, !tbaa !4
  %29 = sub nsw i32 %28, 1
  %30 = load ptr, ptr %4, align 8, !tbaa !27
  %31 = load i32, ptr %5, align 4, !tbaa !4
  %32 = sub nsw i32 %31, 1
  %33 = sext i32 %32 to i64
  %34 = getelementptr inbounds i32, ptr %30, i64 %33
  %35 = load i32, ptr %34, align 4, !tbaa !4
  call void @qasm_recordMultiControlledGate(ptr noundef byval(%struct.Qureg) align 8 %0, i32 noundef 2, ptr noundef %27, i32 noundef %29, i32 noundef %35)
  ret void
}