; Function Attrs: nounwind uwtable
define void @multiControlledPhaseFlip(ptr noundef readonly byval(%struct.Qureg) align 8 captures(none) %0, ptr noundef %1, i32 noundef %2) local_unnamed_addr #0 {
  tail call void @validateMultiQubits(ptr noundef nonnull byval(%struct.Qureg) align 8 %0, ptr noundef %1, i32 noundef %2, ptr noundef nonnull @__func__.multiControlledPhaseFlip) #17
  tail call void @statevec_multiControlledPhaseFlip(ptr noundef nonnull byval(%struct.Qureg) align 8 %0, ptr noundef %1, i32 noundef %2) #17
  %4 = load i32, ptr %0, align 8, !tbaa !12
  %.not = icmp eq i32 %4, 0
  br i1 %.not, label %9, label %5

5:                                                ; preds = %3
  %6 = getelementptr inbounds nuw i8, ptr %0, i64 4
  %7 = load i32, ptr %6, align 4, !tbaa !17
  tail call void @shiftIndices(ptr noundef %1, i32 noundef %2, i32 noundef %7) #17
  tail call void @statevec_multiControlledPhaseFlip(ptr noundef nonnull byval(%struct.Qureg) align 8 %0, ptr noundef %1, i32 noundef %2) #17
  %8 = sub nsw i32 0, %7
  tail call void @shiftIndices(ptr noundef %1, i32 noundef %2, i32 noundef %8) #17
  br label %9

9:                                                ; preds = %5, %3
  %10 = add nsw i32 %2, -1
  %11 = sext i32 %10 to i64
  %12 = getelementptr inbounds i32, ptr %1, i64 %11
  %13 = load i32, ptr %12, align 4, !tbaa !20
  tail call void @qasm_recordMultiControlledGate(ptr noundef nonnull byval(%struct.Qureg) align 8 %0, i32 noundef 2, ptr noundef %1, i32 noundef %10, i32 noundef %13) #17
  ret void
}